target datalayout = "e-m:e-p270:32:32-p271:32:32-p272:64:64-i64:64-i128:128-f80:128-n8:16:32:64-S128"
target triple = "x86_64-unknown-linux-gnu"

%"class.ue2::ParsedLitExpression" = type { %"class.ue2::ExpressionInfo", %"struct.ue2::ue2_literal" }
%"class.ue2::ExpressionInfo" = type <{ i32, i32, i8, i8, i8, i8, i32, i64, i64, i64, i32, i32, i8, [7 x i8] }>
%"struct.ue2::ue2_literal" = type { %"class.std::__cxx11::basic_string", %"class.boost::dynamic_bitset" }
%"class.std::__cxx11::basic_string" = type { %"struct.std::__cxx11::basic_string<char>::_Alloc_hider", i64, %union.anon }
%"struct.std::__cxx11::basic_string<char>::_Alloc_hider" = type { ptr }
%union.anon = type { i64, [8 x i8] }
%"class.boost::dynamic_bitset" = type { %"class.std::vector", i64 }
%"class.std::vector" = type { %"struct.std::_Vector_base" }
%"struct.std::_Vector_base" = type { %"struct.std::_Vector_base<unsigned long, std::allocator<unsigned long>>::_Vector_impl" }
%"struct.std::_Vector_base<unsigned long, std::allocator<unsigned long>>::_Vector_impl" = type { %"struct.std::_Vector_base<unsigned long, std::allocator<unsigned long>>::_Vector_impl_data" }
%"struct.std::_Vector_base<unsigned long, std::allocator<unsigned long>>::_Vector_impl_data" = type { ptr, ptr, ptr }

; Function Attrs: mustprogress uwtable
define hidden void @_ZN3ue219ParsedLitExpression12parseLiteralEPKcmb(ptr noundef nonnull align 8 dereferenceable(120) %this, ptr noundef %expression, i64 noundef %len, i1 noundef zeroext %nocase) #3 align 2 {
entry:
  %this.addr = alloca ptr, align 8
  %expression.addr = alloca ptr, align 8
  %len.addr = alloca i64, align 8
  %nocase.addr = alloca i8, align 1
  %c = alloca ptr, align 8
  %i = alloca i64, align 8
  store ptr %this, ptr %this.addr, align 8
  store ptr %expression, ptr %expression.addr, align 8
  store i64 %len, ptr %len.addr, align 8
  %frombool = zext i1 %nocase to i8
  store i8 %frombool, ptr %nocase.addr, align 1
  %this1 = load ptr, ptr %this.addr, align 8
  %0 = load ptr, ptr %expression.addr, align 8
  store ptr %0, ptr %c, align 8
  store i64 0, ptr %i, align 8
  br label %for.cond

for.cond:                                         ; preds = %for.inc, %entry
  %1 = load i64, ptr %i, align 8
  %2 = load i64, ptr %len.addr, align 8
  %cmp = icmp ult i64 %1, %2
  br i1 %cmp, label %for.body, label %for.end

for.body:                                         ; preds = %for.cond
  %lit = getelementptr inbounds %"class.ue2::ParsedLitExpression", ptr %this1, i32 0, i32 1
  %3 = load ptr, ptr %c, align 8
  %4 = load i8, ptr %3, align 1
  %5 = load i8, ptr %nocase.addr, align 1
  %tobool = trunc i8 %5 to i1
  call void @_ZN3ue211ue2_literal9push_backEcb(ptr noundef nonnull align 8 dereferenceable(64) %lit, i8 noundef signext %4, i1 noundef zeroext %tobool)
  %6 = load ptr, ptr %c, align 8
  %incdec.ptr = getelementptr inbounds i8, ptr %6, i32 1
  store ptr %incdec.ptr, ptr %c, align 8
  br label %for.inc

for.inc:                                          ; preds = %for.body
  %7 = load i64, ptr %i, align 8
  %inc = add i64 %7, 1
  store i64 %inc, ptr %i, align 8
  br label %for.cond, !llvm.loop !5

for.end:                                          ; preds = %for.cond
  ret void
}