; Function Attrs: mustprogress uwtable
define hidden void @_ZN3ue219ParsedLitExpression12parseLiteralEPKcmb(ptr noundef nonnull align 8 dereferenceable(120) %this, ptr nocapture noundef readonly %expression, i64 noundef %len, i1 noundef zeroext %nocase) local_unnamed_addr #2 align 2 {
entry:
  %cmp3.not = icmp eq i64 %len, 0
  br i1 %cmp3.not, label %for.end, label %for.body.lr.ph

for.body.lr.ph:                                   ; preds = %entry
  %lit = getelementptr inbounds i8, ptr %this, i64 56
  br label %for.body

for.body:                                         ; preds = %for.body.lr.ph, %for.body
  %i.05 = phi i64 [ 0, %for.body.lr.ph ], [ %inc, %for.body ]
  %c.04 = phi ptr [ %expression, %for.body.lr.ph ], [ %incdec.ptr, %for.body ]
  %0 = load i8, ptr %c.04, align 1
  tail call void @_ZN3ue211ue2_literal9push_backEcb(ptr noundef nonnull align 8 dereferenceable(64) %lit, i8 noundef signext %0, i1 noundef zeroext %nocase)
  %incdec.ptr = getelementptr inbounds i8, ptr %c.04, i64 1
  %inc = add nuw i64 %i.05, 1
  %exitcond.not = icmp eq i64 %inc, %len
  br i1 %exitcond.not, label %for.end, label %for.body, !llvm.loop !5

for.end:                                          ; preds = %for.body, %entry
  ret void
}